; Function Attrs: nounwind uwtable
define ptr @l_Lean_Elab_Tactic_BVDecide_Frontend_Normalize_typeAnalysisPass_checkContext(ptr noundef %0, ptr noundef %1, ptr noundef %2, ptr noundef %3, ptr noundef %4, ptr noundef %5, ptr noundef %6, ptr noundef %7) local_unnamed_addr #1 {
  %9 = load ptr, ptr @l_Lean_Elab_Tactic_BVDecide_Frontend_Normalize_typeAnalysisPass_checkContext___closed__1, align 8, !tbaa !4
  %10 = load ptr, ptr @l_Lean_Elab_Tactic_BVDecide_Frontend_Normalize_typeAnalysisPass_checkContext___closed__2, align 8, !tbaa !4
  tail call void @lean_inc_heartbeat() #4
  %11 = tail call noalias ptr @mi_malloc_small(i64 noundef 40) #4
  %12 = icmp eq ptr %11, null
  br i1 %12, label %13, label %lean_alloc_closure.exit

13:                                               ; preds = %8
  tail call void @lean_internal_panic_out_of_memory() #5
  unreachable

lean_alloc_closure.exit:                          ; preds = %8
  %14 = getelementptr inbounds nuw i8, ptr %11, i64 4
  store i32 1, ptr %11, align 4, !tbaa !8
  store i32 -184549336, ptr %14, align 4
  %15 = getelementptr inbounds nuw i8, ptr %11, i64 8
  store ptr @l_ReaderT_bind___at_Lean_Elab_Tactic_BVDecide_Frontend_Normalize_typeAnalysisPass_checkContext___spec__7___rarg, ptr %15, align 8, !tbaa !4
  %16 = getelementptr inbounds nuw i8, ptr %11, i64 16
  store i16 9, ptr %16, align 8, !tbaa !14
  %17 = getelementptr inbounds nuw i8, ptr %11, i64 18
  store i16 2, ptr %17, align 2, !tbaa !14
  %18 = getelementptr inbounds nuw i8, ptr %11, i64 24
  store ptr %9, ptr %18, align 8, !tbaa !4
  %19 = getelementptr inbounds nuw i8, ptr %11, i64 32
  store ptr %10, ptr %19, align 8, !tbaa !4
  %20 = tail call ptr @l_Lean_MVarId_withContext___at_Lean_Elab_Tactic_BVDecide_Frontend_Normalize_typeAnalysisPass_checkContext___spec__8___rarg(ptr noundef %0, ptr noundef nonnull %11, ptr noundef %1, ptr noundef %2, ptr noundef %3, ptr noundef %4, ptr noundef %5, ptr noundef %6, ptr noundef %7)
  ret ptr %20
}